target datalayout = "e-m:e-p270:32:32-p271:32:32-p272:64:64-i64:64-i128:128-f80:128-n8:16:32:64-S128"
target triple = "x86_64-unknown-linux-gnu"

%"class.google::protobuf::internal::InternalMetadata" = type { i64 }
%"class.google::protobuf::internal::CachedSize" = type { i32 }
%union.anon.15 = type { %"struct.google::protobuf::BoolValue::Impl_" }
%"struct.google::protobuf::BoolValue::Impl_" = type { i8, %"class.google::protobuf::internal::CachedSize" }
%"class.google::protobuf::Message" = type { %"class.google::protobuf::MessageLite" }
%"class.google::protobuf::MessageLite" = type { ptr, %"class.google::protobuf::internal::InternalMetadata" }
%"struct.google::protobuf::internal::InternalMetadata::Container" = type { %"struct.google::protobuf::internal::InternalMetadata::ContainerBase", %"class.google::protobuf::UnknownFieldSet" }
%"struct.google::protobuf::internal::InternalMetadata::ContainerBase" = type { ptr }
%"class.google::protobuf::UnknownFieldSet" = type { %"class.std::vector" }
%"class.std::vector" = type { %"struct.std::_Vector_base" }
%"struct.std::_Vector_base" = type { %"struct.std::_Vector_base<google::protobuf::UnknownField, std::allocator<google::protobuf::UnknownField>>::_Vector_impl" }
%"struct.std::_Vector_base<google::protobuf::UnknownField, std::allocator<google::protobuf::UnknownField>>::_Vector_impl" = type { %"struct.std::_Vector_base<google::protobuf::UnknownField, std::allocator<google::protobuf::UnknownField>>::_Vector_impl_data" }
%"struct.std::_Vector_base<google::protobuf::UnknownField, std::allocator<google::protobuf::UnknownField>>::_Vector_impl_data" = type { ptr, ptr, ptr }
%"class.google::protobuf::io::EpsCopyOutputStream" = type <{ ptr, ptr, [32 x i8], ptr, i8, i8, i8, i8, [4 x i8] }>
%"class.google::protobuf::BoolValue" = type { %"class.google::protobuf::Message", %union.anon.15 }

; Function Attrs: mustprogress nounwind uwtable
define linkonce_odr hidden noundef ptr @_ZNK6google8protobuf8internal16InternalMetadata8PtrValueINS2_9ContainerINS0_15UnknownFieldSetEEEEEPT_v(ptr noundef nonnull align 8 dereferenceable(8) %this) #5 comdat align 2 {
entry:
  %this.addr = alloca ptr, align 8
  store ptr %this, ptr %this.addr, align 8
  %this1 = load ptr, ptr %this.addr, align 8
  %ptr_ = getelementptr inbounds %"class.google::protobuf::internal::InternalMetadata", ptr %this1, i32 0, i32 0
  %0 = load i64, ptr %ptr_, align 8
  %and = and i64 %0, -2
  %1 = inttoptr i64 %and to ptr
  ret ptr %1
}

; Function Attrs: mustprogress uwtable
define linkonce_odr hidden noundef ptr @_ZN6google8protobuf2io17CodedOutputStream20WriteVarint32ToArrayEjPh(i32 noundef %value, ptr noundef %target) #4 comdat align 2 {
entry:
  %value.addr.i = alloca i32, align 4
  %ptr.addr.i = alloca ptr, align 8
  %value.addr = alloca i32, align 4
  %target.addr = alloca ptr, align 8
  store i32 %value, ptr %value.addr, align 4
  store ptr %target, ptr %target.addr, align 8
  %0 = load i32, ptr %value.addr, align 4
  %1 = load ptr, ptr %target.addr, align 8
  store i32 %0, ptr %value.addr.i, align 4
  store ptr %1, ptr %ptr.addr.i, align 8
  br label %while.cond.i

while.cond.i:                                     ; preds = %while.body.i, %entry
  %2 = load i32, ptr %value.addr.i, align 4
  %cmp.i = icmp uge i32 %2, 128
  br i1 %cmp.i, label %while.body.i, label %_ZN6google8protobuf2io19EpsCopyOutputStream12UnsafeVarintIjEEPhT_S4_.exit

while.body.i:                                     ; preds = %while.cond.i
  %3 = load i32, ptr %value.addr.i, align 4
  %or.i = or i32 %3, 128
  %conv.i = trunc i32 %or.i to i8
  %4 = load ptr, ptr %ptr.addr.i, align 8
  store i8 %conv.i, ptr %4, align 1
  %5 = load i32, ptr %value.addr.i, align 4
  %shr.i = lshr i32 %5, 7
  store i32 %shr.i, ptr %value.addr.i, align 4
  %6 = load ptr, ptr %ptr.addr.i, align 8
  %incdec.ptr.i = getelementptr inbounds i8, ptr %6, i32 1
  store ptr %incdec.ptr.i, ptr %ptr.addr.i, align 8
  br label %while.cond.i, !llvm.loop !34

_ZN6google8protobuf2io19EpsCopyOutputStream12UnsafeVarintIjEEPhT_S4_.exit: ; preds = %while.cond.i
  %7 = load i32, ptr %value.addr.i, align 4
  %conv1.i = trunc i32 %7 to i8
  %8 = load ptr, ptr %ptr.addr.i, align 8
  %incdec.ptr2.i = getelementptr inbounds i8, ptr %8, i32 1
  store ptr %incdec.ptr2.i, ptr %ptr.addr.i, align 8
  store i8 %conv1.i, ptr %8, align 1
  %9 = load ptr, ptr %ptr.addr.i, align 8
  ret ptr %9
}

; Function Attrs: mustprogress nounwind uwtable
define linkonce_odr hidden noundef i32 @_ZN6google8protobuf8internal14WireFormatLite7MakeTagEiNS2_8WireTypeE(i32 noundef %field_number, i32 noundef %type) #5 comdat align 2 {
entry:
  %field_number.addr = alloca i32, align 4
  %type.addr = alloca i32, align 4
  store i32 %field_number, ptr %field_number.addr, align 4
  store i32 %type, ptr %type.addr, align 4
  %0 = load i32, ptr %field_number.addr, align 4
  %shl = shl i32 %0, 3
  %1 = load i32, ptr %type.addr, align 4
  %or = or i32 %shl, %1
  ret i32 %or
}

; Function Attrs: mustprogress uwtable
define linkonce_odr hidden noundef ptr @_ZN6google8protobuf2io19EpsCopyOutputStream11EnsureSpaceEPh(ptr noundef nonnull align 8 dereferenceable(60) %this, ptr noundef %ptr) #4 comdat align 2 {
entry:
  %retval = alloca ptr, align 8
  %this.addr = alloca ptr, align 8
  %ptr.addr = alloca ptr, align 8
  store ptr %this, ptr %this.addr, align 8
  store ptr %ptr, ptr %ptr.addr, align 8
  %this1 = load ptr, ptr %this.addr, align 8
  %0 = load ptr, ptr %ptr.addr, align 8
  %end_ = getelementptr inbounds %"class.google::protobuf::io::EpsCopyOutputStream", ptr %this1, i32 0, i32 0
  %1 = load ptr, ptr %end_, align 8
  %cmp = icmp uge ptr %0, %1
  br i1 %cmp, label %if.then, label %if.end

if.then:                                          ; preds = %entry
  %2 = load ptr, ptr %ptr.addr, align 8
  %call = call noundef ptr @_ZN6google8protobuf2io19EpsCopyOutputStream19EnsureSpaceFallbackEPh(ptr noundef nonnull align 8 dereferenceable(60) %this1, ptr noundef %2)
  store ptr %call, ptr %retval, align 8
  br label %return

if.end:                                           ; preds = %entry
  %3 = load ptr, ptr %ptr.addr, align 8
  store ptr %3, ptr %retval, align 8
  br label %return

return:                                           ; preds = %if.end, %if.then
  %4 = load ptr, ptr %retval, align 8
  ret ptr %4
}

; Function Attrs: mustprogress nounwind uwtable
define linkonce_odr hidden noundef zeroext i1 @_ZNK6google8protobuf9BoolValue15_internal_valueEv(ptr noundef nonnull align 8 dereferenceable(24) %this) #5 comdat align 2 {
entry:
  %this.addr = alloca ptr, align 8
  store ptr %this, ptr %this.addr, align 8
  %this1 = load ptr, ptr %this.addr, align 8
  %0 = getelementptr inbounds %"class.google::protobuf::BoolValue", ptr %this1, i32 0, i32 1
  %value_ = getelementptr inbounds %"struct.google::protobuf::BoolValue::Impl_", ptr %0, i32 0, i32 0
  %1 = load i8, ptr %value_, align 8
  %tobool = trunc i8 %1 to i1
  ret i1 %tobool
}

; Function Attrs: mustprogress uwtable
define noundef ptr @_ZNK6google8protobuf9BoolValue18_InternalSerializeEPhPNS0_2io19EpsCopyOutputStreamE(ptr noundef nonnull align 8 dereferenceable(24) %this, ptr noundef %target, ptr noundef %stream) unnamed_addr #4 align 2 {
entry:
  %value.addr.i29 = alloca i8, align 1
  %target.addr.i30 = alloca ptr, align 8
  %this.addr.i25 = alloca ptr, align 8
  %this.addr.i22 = alloca ptr, align 8
  %value.addr.i19 = alloca i32, align 4
  %target.addr.i20 = alloca ptr, align 8
  %field_number.addr.i15 = alloca i32, align 4
  %type.addr.i = alloca i32, align 4
  %target.addr.i16 = alloca ptr, align 8
  %field_number.addr.i = alloca i32, align 4
  %value.addr.i = alloca i8, align 1
  %target.addr.i = alloca ptr, align 8
  %this.addr.i.i = alloca ptr, align 8
  %retval.i = alloca ptr, align 8
  %this.addr.i12 = alloca ptr, align 8
  %default_instance.addr.i = alloca ptr, align 8
  %this.addr.i = alloca ptr, align 8
  %this.addr = alloca ptr, align 8
  %target.addr = alloca ptr, align 8
  %stream.addr = alloca ptr, align 8
  %cached_has_bits = alloca i32, align 4
  store ptr %this, ptr %this.addr, align 8
  store ptr %target, ptr %target.addr, align 8
  store ptr %stream, ptr %stream.addr, align 8
  %this1 = load ptr, ptr %this.addr, align 8
  store i32 0, ptr %cached_has_bits, align 4
  %call = call noundef zeroext i1 @_ZNK6google8protobuf9BoolValue15_internal_valueEv(ptr noundef nonnull align 8 dereferenceable(24) %this1)
  %conv = zext i1 %call to i32
  %cmp = icmp ne i32 %conv, 0
  br i1 %cmp, label %if.then, label %if.end

if.then:                                          ; preds = %entry
  %0 = load ptr, ptr %stream.addr, align 8
  %1 = load ptr, ptr %target.addr, align 8
  %call2 = call noundef ptr @_ZN6google8protobuf2io19EpsCopyOutputStream11EnsureSpaceEPh(ptr noundef nonnull align 8 dereferenceable(60) %0, ptr noundef %1)
  store ptr %call2, ptr %target.addr, align 8
  %call3 = call noundef zeroext i1 @_ZNK6google8protobuf9BoolValue15_internal_valueEv(ptr noundef nonnull align 8 dereferenceable(24) %this1)
  %2 = load ptr, ptr %target.addr, align 8
  store i32 1, ptr %field_number.addr.i, align 4
  %frombool.i = zext i1 %call3 to i8
  store i8 %frombool.i, ptr %value.addr.i, align 1
  store ptr %2, ptr %target.addr.i, align 8
  %3 = load i32, ptr %field_number.addr.i, align 4
  %4 = load ptr, ptr %target.addr.i, align 8
  store i32 %3, ptr %field_number.addr.i15, align 4
  store i32 0, ptr %type.addr.i, align 4
  store ptr %4, ptr %target.addr.i16, align 8
  %5 = load i32, ptr %field_number.addr.i15, align 4
  %6 = load i32, ptr %type.addr.i, align 4
  %call.i17 = call noundef i32 @_ZN6google8protobuf8internal14WireFormatLite7MakeTagEiNS2_8WireTypeE(i32 noundef %5, i32 noundef %6)
  %7 = load ptr, ptr %target.addr.i16, align 8
  store i32 %call.i17, ptr %value.addr.i19, align 4
  store ptr %7, ptr %target.addr.i20, align 8
  %8 = load i32, ptr %value.addr.i19, align 4
  %9 = load ptr, ptr %target.addr.i20, align 8
  %call.i21 = call noundef ptr @_ZN6google8protobuf2io17CodedOutputStream20WriteVarint32ToArrayEjPh(i32 noundef %8, ptr noundef %9)
  store ptr %call.i21, ptr %target.addr.i, align 8
  %10 = load i8, ptr %value.addr.i, align 1
  %tobool.i = trunc i8 %10 to i1
  %11 = load ptr, ptr %target.addr.i, align 8
  %frombool.i31 = zext i1 %tobool.i to i8
  store i8 %frombool.i31, ptr %value.addr.i29, align 1
  store ptr %11, ptr %target.addr.i30, align 8
  %12 = load i8, ptr %value.addr.i29, align 1
  %tobool.i32 = trunc i8 %12 to i1
  %cond.i = select i1 %tobool.i32, i32 1, i32 0
  %13 = load ptr, ptr %target.addr.i30, align 8
  %call.i = call noundef ptr @_ZN6google8protobuf2io17CodedOutputStream20WriteVarint32ToArrayEjPh(i32 noundef %cond.i, ptr noundef %13)
  store ptr %call.i, ptr %target.addr, align 8
  br label %if.end

if.end:                                           ; preds = %if.then, %entry
  %_internal_metadata_ = getelementptr inbounds %"class.google::protobuf::MessageLite", ptr %this1, i32 0, i32 1
  store ptr %_internal_metadata_, ptr %this.addr.i, align 8
  %this1.i = load ptr, ptr %this.addr.i, align 8
  store ptr %this1.i, ptr %this.addr.i25, align 8
  %this1.i26 = load ptr, ptr %this.addr.i25, align 8
  %14 = load i64, ptr %this1.i26, align 8
  %and.i27 = and i64 %14, 1
  %tobool.i28 = icmp ne i64 %and.i27, 0
  br i1 %tobool.i28, label %if.then7, label %if.end11

if.then7:                                         ; preds = %if.end
  %_internal_metadata_8 = getelementptr inbounds %"class.google::protobuf::MessageLite", ptr %this1, i32 0, i32 1
  store ptr %_internal_metadata_8, ptr %this.addr.i12, align 8
  store ptr @_ZN6google8protobuf15UnknownFieldSet16default_instanceEv, ptr %default_instance.addr.i, align 8
  %this1.i13 = load ptr, ptr %this.addr.i12, align 8
  store ptr %this1.i13, ptr %this.addr.i.i, align 8
  %this1.i.i = load ptr, ptr %this.addr.i.i, align 8
  store ptr %this1.i.i, ptr %this.addr.i22, align 8
  %this1.i23 = load ptr, ptr %this.addr.i22, align 8
  %15 = load i64, ptr %this1.i23, align 8
  %and.i = and i64 %15, 1
  %tobool.i24 = icmp ne i64 %and.i, 0
  br i1 %tobool.i24, label %if.then.i, label %if.else.i

if.then.i:                                        ; preds = %if.then7
  %call2.i = call noundef ptr @_ZNK6google8protobuf8internal16InternalMetadata8PtrValueINS2_9ContainerINS0_15UnknownFieldSetEEEEEPT_v(ptr noundef nonnull align 8 dereferenceable(8) %this1.i13)
  %unknown_fields.i = getelementptr inbounds %"struct.google::protobuf::internal::InternalMetadata::Container", ptr %call2.i, i32 0, i32 1
  store ptr %unknown_fields.i, ptr %retval.i, align 8
  br label %_ZNK6google8protobuf8internal16InternalMetadata14unknown_fieldsINS0_15UnknownFieldSetEEERKT_PFS7_vE.exit

if.else.i:                                        ; preds = %if.then7
  %16 = load ptr, ptr %default_instance.addr.i, align 8
  %call3.i = call noundef nonnull align 8 dereferenceable(24) ptr %16()
  store ptr %call3.i, ptr %retval.i, align 8
  br label %_ZNK6google8protobuf8internal16InternalMetadata14unknown_fieldsINS0_15UnknownFieldSetEEERKT_PFS7_vE.exit

_ZNK6google8protobuf8internal16InternalMetadata14unknown_fieldsINS0_15UnknownFieldSetEEERKT_PFS7_vE.exit: ; preds = %if.else.i, %if.then.i
  %17 = load ptr, ptr %retval.i, align 8
  %18 = load ptr, ptr %target.addr, align 8
  %19 = load ptr, ptr %stream.addr, align 8
  %call10 = call noundef ptr @_ZN6google8protobuf8internal10WireFormat37InternalSerializeUnknownFieldsToArrayERKNS0_15UnknownFieldSetEPhPNS0_2io19EpsCopyOutputStreamE(ptr noundef nonnull align 8 dereferenceable(24) %17, ptr noundef %18, ptr noundef %19)
  store ptr %call10, ptr %target.addr, align 8
  br label %if.end11

if.end11:                                         ; preds = %_ZNK6google8protobuf8internal16InternalMetadata14unknown_fieldsINS0_15UnknownFieldSetEEERKT_PFS7_vE.exit, %if.end
  %20 = load ptr, ptr %target.addr, align 8
  ret ptr %20
}