; Function Attrs: mustprogress uwtable
define noundef ptr @_ZNK6google8protobuf9BoolValue18_InternalSerializeEPhPNS0_2io19EpsCopyOutputStreamE(ptr nocapture noundef nonnull readonly align 8 dereferenceable(24) %this, ptr noundef %target, ptr noundef %stream) unnamed_addr #3 align 2 {
entry:
  %0 = getelementptr inbounds i8, ptr %this, i64 16
  %1 = load i8, ptr %0, align 8
  %2 = and i8 %1, 1
  %tobool.i.not = icmp eq i8 %2, 0
  br i1 %tobool.i.not, label %if.end, label %if.then

if.then:                                          ; preds = %entry
  %3 = load ptr, ptr %stream, align 8
  %cmp.not.i = icmp ugt ptr %3, %target
  br i1 %cmp.not.i, label %_ZN6google8protobuf2io19EpsCopyOutputStream11EnsureSpaceEPh.exit, label %if.then.i6

if.then.i6:                                       ; preds = %if.then
  %call.i7 = tail call noundef ptr @_ZN6google8protobuf2io19EpsCopyOutputStream19EnsureSpaceFallbackEPh(ptr noundef nonnull align 8 dereferenceable(60) %stream, ptr noundef %target)
  %.pre = load i8, ptr %0, align 8
  %.pre10 = and i8 %.pre, 1
  br label %_ZN6google8protobuf2io19EpsCopyOutputStream11EnsureSpaceEPh.exit

_ZN6google8protobuf2io19EpsCopyOutputStream11EnsureSpaceEPh.exit: ; preds = %if.then, %if.then.i6
  %.pre-phi = phi i8 [ 1, %if.then ], [ %.pre10, %if.then.i6 ]
  %retval.0.i = phi ptr [ %target, %if.then ], [ %call.i7, %if.then.i6 ]
  %incdec.ptr2.i.i = getelementptr inbounds i8, ptr %retval.0.i, i64 1
  store i8 8, ptr %retval.0.i, align 1
  %incdec.ptr2.i.i9 = getelementptr inbounds i8, ptr %retval.0.i, i64 2
  store i8 %.pre-phi, ptr %incdec.ptr2.i.i, align 1
  br label %if.end

if.end:                                           ; preds = %_ZN6google8protobuf2io19EpsCopyOutputStream11EnsureSpaceEPh.exit, %entry
  %target.addr.0 = phi ptr [ %incdec.ptr2.i.i9, %_ZN6google8protobuf2io19EpsCopyOutputStream11EnsureSpaceEPh.exit ], [ %target, %entry ]
  %_internal_metadata_ = getelementptr inbounds i8, ptr %this, i64 8
  %4 = load i64, ptr %_internal_metadata_, align 8
  %and.i27 = and i64 %4, 1
  %tobool.i28.not = icmp eq i64 %and.i27, 0
  br i1 %tobool.i28.not, label %if.end11, label %if.then.i

if.then.i:                                        ; preds = %if.end
  %and.i = and i64 %4, -2
  %5 = inttoptr i64 %and.i to ptr
  %unknown_fields.i = getelementptr inbounds i8, ptr %5, i64 8
  %call10 = tail call noundef ptr @_ZN6google8protobuf8internal10WireFormat37InternalSerializeUnknownFieldsToArrayERKNS0_15UnknownFieldSetEPhPNS0_2io19EpsCopyOutputStreamE(ptr noundef nonnull align 8 dereferenceable(24) %unknown_fields.i, ptr noundef %target.addr.0, ptr noundef %stream)
  br label %if.end11

if.end11:                                         ; preds = %if.then.i, %if.end
  %target.addr.1 = phi ptr [ %call10, %if.then.i ], [ %target.addr.0, %if.end ]
  ret ptr %target.addr.1
}